   1              		.cpu arm7tdmi
   2              		.fpu softvfp
   3              		.eabi_attribute 20, 1
   4              		.eabi_attribute 21, 1
   5              		.eabi_attribute 23, 3
   6              		.eabi_attribute 24, 1
   7              		.eabi_attribute 25, 1
   8              		.eabi_attribute 26, 1
   9              		.eabi_attribute 30, 6
  10              		.eabi_attribute 18, 4
  11              		.file	"arit-float.c"
  21              	.Ltext0:
  22              		.file 1 "../arit-float.c"
 978              		.align	2
 979              		.global	main
 981              	main:
 982              	.LFB0:
   1:../arit-float.c **** 
   2:../arit-float.c **** // Probad primero con las variables como float y posteriormente como double
   3:../arit-float.c **** float f1,f2,f3;
   4:../arit-float.c **** 
   5:../arit-float.c **** int main() {
 983              		.loc 1 5 0
 984              		.cfi_startproc
 985              		@ Function supports interworking.
 986              		@ args = 0, pretend = 0, frame = 0
 987              		@ frame_needed = 1, uses_anonymous_args = 0
 988 0000 0DC0A0E1 		mov	ip, sp
 989              	.LCFI0:
 990              		.cfi_def_cfa_register 12
 991 0004 F8D92DE9 		stmfd	sp!, {r3, r4, r5, r6, r7, r8, fp, ip, lr, pc}
 992 0008 04B04CE2 		sub	fp, ip, #4
 993              		.cfi_offset 14, -8
 994              		.cfi_offset 13, -12
 995              		.cfi_offset 11, -16
 996              		.cfi_offset 8, -20
 997              		.cfi_offset 7, -24
 998              		.cfi_offset 6, -28
 999              		.cfi_offset 5, -32
 1000              		.cfi_offset 4, -36
 1001              		.cfi_offset 3, -40
 1002              	.LCFI1:
 1003              		.cfi_def_cfa 11, 4
   6:../arit-float.c **** 
   7:../arit-float.c ****   f1 = 1.2;
 1004              		.loc 1 7 0
 1005 000c FC319FE5 		ldr	r3, .L7+16
 1006 0010 FC219FE5 		ldr	r2, .L7+20	@ float
 1007 0014 002083E5 		str	r2, [r3, #0]	@ float
   8:../arit-float.c ****   f2 = 1.1;
 1008              		.loc 1 8 0
 1009 0018 F8319FE5 		ldr	r3, .L7+24
 1010 001c F8219FE5 		ldr	r2, .L7+28	@ float
 1011 0020 002083E5 		str	r2, [r3, #0]	@ float
   9:../arit-float.c ****   f3 = f1- f2; 
 1012              		.loc 1 9 0
 1013 0024 E4319FE5 		ldr	r3, .L7+16
 1014 0028 002093E5 		ldr	r2, [r3, #0]	@ float
 1015 002c E4319FE5 		ldr	r3, .L7+24
 1016 0030 003093E5 		ldr	r3, [r3, #0]	@ float
 1017 0034 0200A0E1 		mov	r0, r2
 1018 0038 0310A0E1 		mov	r1, r3
 1019 003c FEFFFFEB 		bl	__aeabi_fsub
 1020 0040 0030A0E1 		mov	r3, r0
 1021 0044 0320A0E1 		mov	r2, r3
 1022 0048 D0319FE5 		ldr	r3, .L7+32
 1023 004c 002083E5 		str	r2, [r3, #0]	@ float
  10:../arit-float.c **** 
  11:../arit-float.c ****   
  12:../arit-float.c ****   f1 = 1300235677; // Comprobar su representacion en memoria y pasadlo de nuevo a base 10
 1024              		.loc 1 12 0
 1025 0050 B8319FE5 		ldr	r3, .L7+16
 1026 0054 C8219FE5 		ldr	r2, .L7+36	@ float
 1027 0058 002083E5 		str	r2, [r3, #0]	@ float
  13:../arit-float.c ****   f2 = 0.03;
 1028              		.loc 1 13 0
 1029 005c B4319FE5 		ldr	r3, .L7+24
 1030 0060 C0219FE5 		ldr	r2, .L7+40	@ float
 1031 0064 002083E5 		str	r2, [r3, #0]	@ float
  14:../arit-float.c ****   f3 = f1 + f2; //  comprobad el resultado
 1032              		.loc 1 14 0
 1033 0068 A0319FE5 		ldr	r3, .L7+16
 1034 006c 002093E5 		ldr	r2, [r3, #0]	@ float
 1035 0070 A0319FE5 		ldr	r3, .L7+24
 1036 0074 003093E5 		ldr	r3, [r3, #0]	@ float
 1037 0078 0200A0E1 		mov	r0, r2
 1038 007c 0310A0E1 		mov	r1, r3
 1039 0080 FEFFFFEB 		bl	__aeabi_fadd
 1040 0084 0030A0E1 		mov	r3, r0
 1041 0088 0320A0E1 		mov	r2, r3
 1042 008c 8C319FE5 		ldr	r3, .L7+32
 1043 0090 002083E5 		str	r2, [r3, #0]	@ float
  15:../arit-float.c **** 
  16:../arit-float.c ****   
  17:../arit-float.c ****   f1 = 1300235677; 
 1044              		.loc 1 17 0
 1045 0094 74319FE5 		ldr	r3, .L7+16
 1046 0098 84219FE5 		ldr	r2, .L7+36	@ float
 1047 009c 002083E5 		str	r2, [r3, #0]	@ float
  18:../arit-float.c ****   f2 = f1 / 123.8;
 1048              		.loc 1 18 0
 1049 00a0 68319FE5 		ldr	r3, .L7+16
 1050 00a4 003093E5 		ldr	r3, [r3, #0]	@ float
 1051 00a8 0300A0E1 		mov	r0, r3
 1052 00ac FEFFFFEB 		bl	__aeabi_f2d
 1053 00b0 0030A0E1 		mov	r3, r0
 1054 00b4 0140A0E1 		mov	r4, r1
 1055 00b8 0300A0E1 		mov	r0, r3
 1056 00bc 0410A0E1 		mov	r1, r4
 1057 00c0 4E3F8FE2 		adr	r3, .L7
 1058 00c4 0C0093E8 		ldmia	r3, {r2-r3}
 1059 00c8 FEFFFFEB 		bl	__aeabi_ddiv
 1060 00cc 0030A0E1 		mov	r3, r0
 1061 00d0 0140A0E1 		mov	r4, r1
 1062 00d4 0300A0E1 		mov	r0, r3
 1063 00d8 0410A0E1 		mov	r1, r4
 1064 00dc FEFFFFEB 		bl	__aeabi_d2f
 1065 00e0 0020A0E1 		mov	r2, r0
 1066 00e4 2C319FE5 		ldr	r3, .L7+24
 1067 00e8 002083E5 		str	r2, [r3, #0]	@ float
  19:../arit-float.c ****   f3 = f1 - (f2*123 + f2*0.8); 
 1068              		.loc 1 19 0
 1069 00ec 1C319FE5 		ldr	r3, .L7+16
 1070 00f0 003093E5 		ldr	r3, [r3, #0]	@ float
 1071 00f4 0300A0E1 		mov	r0, r3
 1072 00f8 FEFFFFEB 		bl	__aeabi_f2d
 1073 00fc 0050A0E1 		mov	r5, r0
 1074 0100 0160A0E1 		mov	r6, r1
 1075 0104 0C319FE5 		ldr	r3, .L7+24
 1076 0108 003093E5 		ldr	r3, [r3, #0]	@ float
 1077 010c 0300A0E1 		mov	r0, r3
 1078 0110 14119FE5 		ldr	r1, .L7+44	@ float
 1079 0114 FEFFFFEB 		bl	__aeabi_fmul
 1080 0118 0030A0E1 		mov	r3, r0
 1081 011c 0300A0E1 		mov	r0, r3
 1082 0120 FEFFFFEB 		bl	__aeabi_f2d
 1083 0124 0070A0E1 		mov	r7, r0
 1084 0128 0180A0E1 		mov	r8, r1
 1085 012c E4309FE5 		ldr	r3, .L7+24
 1086 0130 003093E5 		ldr	r3, [r3, #0]	@ float
 1087 0134 0300A0E1 		mov	r0, r3
 1088 0138 FEFFFFEB 		bl	__aeabi_f2d
 1089 013c 0030A0E1 		mov	r3, r0
 1090 0140 0140A0E1 		mov	r4, r1
 1091 0144 0300A0E1 		mov	r0, r3
 1092 0148 0410A0E1 		mov	r1, r4
 1093 014c B4308FE2 		adr	r3, .L7+8
 1094 0150 0C0093E8 		ldmia	r3, {r2-r3}
 1095 0154 FEFFFFEB 		bl	__aeabi_dmul
 1096 0158 0030A0E1 		mov	r3, r0
 1097 015c 0140A0E1 		mov	r4, r1
 1098 0160 0700A0E1 		mov	r0, r7
 1099 0164 0810A0E1 		mov	r1, r8
 1100 0168 0320A0E1 		mov	r2, r3
 1101 016c 0430A0E1 		mov	r3, r4
 1102 0170 FEFFFFEB 		bl	__aeabi_dadd
 1103 0174 0030A0E1 		mov	r3, r0
 1104 0178 0140A0E1 		mov	r4, r1
 1105 017c 0500A0E1 		mov	r0, r5
 1106 0180 0610A0E1 		mov	r1, r6
 1107 0184 0320A0E1 		mov	r2, r3
 1108 0188 0430A0E1 		mov	r3, r4
 1109 018c FEFFFFEB 		bl	__aeabi_dsub
 1110 0190 0030A0E1 		mov	r3, r0
 1111 0194 0140A0E1 		mov	r4, r1
 1112 0198 0300A0E1 		mov	r0, r3
 1113 019c 0410A0E1 		mov	r1, r4
 1114 01a0 FEFFFFEB 		bl	__aeabi_d2f
 1115 01a4 0020A0E1 		mov	r2, r0
 1116 01a8 70309FE5 		ldr	r3, .L7+32
 1117 01ac 002083E5 		str	r2, [r3, #0]	@ float
  20:../arit-float.c ****                                
  21:../arit-float.c ****   if (f3 == 0.0) 
 1118              		.loc 1 21 0
 1119 01b0 68309FE5 		ldr	r3, .L7+32
 1120 01b4 003093E5 		ldr	r3, [r3, #0]	@ float
 1121 01b8 0300A0E1 		mov	r0, r3
 1122 01bc 6C109FE5 		ldr	r1, .L7+48	@ float
 1123 01c0 FEFFFFEB 		bl	__aeabi_fcmpeq
 1124 01c4 0030A0E1 		mov	r3, r0
 1125 01c8 000053E3 		cmp	r3, #0
 1126 01cc 0300000A 		beq	.L6
 1127              	.L5:
  22:../arit-float.c ****     f3 = 1.0;
 1128              		.loc 1 22 0
 1129 01d0 48309FE5 		ldr	r3, .L7+32
 1130 01d4 58209FE5 		ldr	r2, .L7+52	@ float
 1131 01d8 002083E5 		str	r2, [r3, #0]	@ float
 1132 01dc 020000EA 		b	.L4
 1133              	.L6:
  23:../arit-float.c ****   else
  24:../arit-float.c ****     f3 = 2.0;
 1134              		.loc 1 24 0
 1135 01e0 38309FE5 		ldr	r3, .L7+32
 1136 01e4 4C209FE5 		ldr	r2, .L7+56	@ float
 1137 01e8 002083E5 		str	r2, [r3, #0]	@ float
 1138              	.L4:
  25:../arit-float.c **** 
  26:../arit-float.c ****   return 0;
 1139              		.loc 1 26 0
 1140 01ec 0030A0E3 		mov	r3, #0
  27:../arit-float.c **** 
  28:../arit-float.c **** }
 1141              		.loc 1 28 0
 1142 01f0 0300A0E1 		mov	r0, r3
 1143 01f4 24D04BE2 		sub	sp, fp, #36
 1144 01f8 F8699DE8 		ldmfd	sp, {r3, r4, r5, r6, r7, r8, fp, sp, lr}
 1145 01fc 1EFF2FE1 		bx	lr
 1146              	.L8:
 1147              		.align	3
 1148              	.L7:
 1149 0200 33333333 		.word	858993459
 1150 0204 33F35E40 		.word	1079964467
 1151 0208 9A999999 		.word	-1717986918
 1152 020c 9999E93F 		.word	1072273817
 1153 0210 00000000 		.word	f1
 1154 0214 9A99993F 		.word	1067030938
 1155 0218 00000000 		.word	f2
 1156 021c CDCC8C3F 		.word	1066192077
 1157 0220 00000000 		.word	f3
 1158 0224 0B009B4E 		.word	1318780939
 1159 0228 8FC2F53C 		.word	1022739087
 1160 022c 0000F642 		.word	1123418112
 1161 0230 00000000 		.word	0
 1162 0234 0000803F 		.word	1065353216
 1163 0238 00000040 		.word	1073741824
 1164              		.cfi_endproc
 1165              	.LFE0:
 1167              	.Letext0: